target datalayout = "e-m:e-p270:32:32-p271:32:32-p272:64:64-i64:64-i128:128-f80:128-n8:16:32:64-S128"
target triple = "x86_64-pc-linux-gnu"

%struct.Gpr_t = type { ptr, ptr, ptr, ptr, ptr, ptr, ptr, ptr, ptr, ptr, ptr, i32, ptr, ptr, ptr, i32, i32, ptr, i32, ptr, i64, [1 x %struct.__jmp_buf_tag] }
%struct.__jmp_buf_tag = type { [8 x i64], i32, %struct.__sigset_t }
%struct.__sigset_t = type { [16 x i64] }
%struct.__va_list_tag = type { i32, i32, ptr, ptr }
%struct.Exdisc_s = type { i64, i64, ptr, ptr, ptr, ptr, ptr, ptr, ptr, ptr, ptr, ptr, ptr, ptr, ptr, ptr, ptr }

; Function Attrs: nounwind uwtable
define internal void @gverrorf(ptr noundef %0, ptr noundef %1, i32 noundef %2, ptr noundef %3, ...) #0 {
  %5 = alloca ptr, align 8
  %6 = alloca ptr, align 8
  %7 = alloca i32, align 4
  %8 = alloca ptr, align 8
  %9 = alloca [1 x %struct.__va_list_tag], align 16
  %10 = alloca ptr, align 8
  store ptr %0, ptr %5, align 8, !tbaa !96
  store ptr %1, ptr %6, align 8, !tbaa !97
  store i32 %2, ptr %7, align 4, !tbaa !3
  store ptr %3, ptr %8, align 8, !tbaa !24
  call void @llvm.lifetime.start.p0(i64 24, ptr %9) #14
  %11 = getelementptr inbounds [1 x %struct.__va_list_tag], ptr %9, i64 0, i64 0
  call void @llvm.va_start.p0(ptr %11)
  %12 = load ptr, ptr %6, align 8, !tbaa !97
  %13 = icmp ne ptr %12, null
  br i1 %13, label %14, label %20

14:                                               ; preds = %4
  %15 = load ptr, ptr %5, align 8, !tbaa !96
  %16 = icmp ne ptr %15, null
  br i1 %16, label %17, label %20

17:                                               ; preds = %14
  %18 = load ptr, ptr %5, align 8, !tbaa !96
  %19 = load ptr, ptr %18, align 8, !tbaa !24
  br label %22

20:                                               ; preds = %14, %4
  %21 = load ptr, ptr %5, align 8, !tbaa !96
  br label %22

22:                                               ; preds = %20, %17
  %23 = phi ptr [ %19, %17 ], [ %21, %20 ]
  %24 = load i32, ptr %7, align 4, !tbaa !3
  %25 = load ptr, ptr %8, align 8, !tbaa !24
  %26 = getelementptr inbounds [1 x %struct.__va_list_tag], ptr %9, i64 0, i64 0
  call void @errorv(ptr noundef %23, i32 noundef %24, ptr noundef %25, ptr noundef %26)
  %27 = getelementptr inbounds [1 x %struct.__va_list_tag], ptr %9, i64 0, i64 0
  call void @llvm.va_end.p0(ptr %27)
  %28 = load i32, ptr %7, align 4, !tbaa !3
  %29 = icmp sge i32 %28, 2
  br i1 %29, label %30, label %52

30:                                               ; preds = %22
  call void @llvm.lifetime.start.p0(i64 8, ptr %10) #14
  %31 = load ptr, ptr %6, align 8, !tbaa !97
  %32 = getelementptr inbounds nuw %struct.Exdisc_s, ptr %31, i32 0, i32 16
  %33 = load ptr, ptr %32, align 8, !tbaa !98
  store ptr %33, ptr %10, align 8, !tbaa !10
  %34 = load ptr, ptr %10, align 8, !tbaa !10
  %35 = getelementptr inbounds nuw %struct.Gpr_t, ptr %34, i32 0, i32 18
  %36 = load i32, ptr %35, align 8, !tbaa !46
  %37 = and i32 %36, 1
  %38 = icmp ne i32 %37, 0
  br i1 %38, label %39, label %40

39:                                               ; preds = %30
  call void @graphviz_exit(i32 noundef 1) #16
  unreachable

40:                                               ; preds = %30
  %41 = load ptr, ptr %10, align 8, !tbaa !10
  %42 = getelementptr inbounds nuw %struct.Gpr_t, ptr %41, i32 0, i32 18
  %43 = load i32, ptr %42, align 8, !tbaa !46
  %44 = and i32 %43, 4
  %45 = icmp ne i32 %44, 0
  br i1 %45, label %46, label %50

46:                                               ; preds = %40
  %47 = load ptr, ptr %10, align 8, !tbaa !10
  %48 = getelementptr inbounds nuw %struct.Gpr_t, ptr %47, i32 0, i32 21
  %49 = getelementptr inbounds [1 x %struct.__jmp_buf_tag], ptr %48, i64 0, i64 0
  call void @longjmp(ptr noundef %49, i32 noundef 1) #17
  unreachable

50:                                               ; preds = %40
  br label %51

51:                                               ; preds = %50
  call void @llvm.lifetime.end.p0(i64 8, ptr %10) #14
  br label %52

52:                                               ; preds = %51, %22
  call void @llvm.lifetime.end.p0(i64 24, ptr %9) #14
  ret void
}