; Function Attrs: nounwind uwtable
define internal void @gverrorf(ptr noundef %0, ptr noundef readonly captures(address_is_null) %1, i32 noundef %2, ptr noundef %3, ...) #0 {
  %5 = alloca [1 x %struct.__va_list_tag], align 16
  call void @llvm.lifetime.start.p0(i64 24, ptr nonnull %5) #24
  call void @llvm.va_start.p0(ptr nonnull %5)
  %6 = icmp ne ptr %1, null
  %7 = icmp ne ptr %0, null
  %or.cond = and i1 %7, %6
  br i1 %or.cond, label %8, label %10

8:                                                ; preds = %4
  %9 = load ptr, ptr %0, align 8, !tbaa !20
  br label %10

10:                                               ; preds = %4, %8
  %11 = phi ptr [ %9, %8 ], [ %0, %4 ]
  call void @errorv(ptr noundef %11, i32 noundef %2, ptr noundef %3, ptr noundef nonnull %5) #24
  call void @llvm.va_end.p0(ptr nonnull %5)
  %12 = icmp sgt i32 %2, 1
  br i1 %12, label %13, label %24

13:                                               ; preds = %10
  %14 = getelementptr inbounds nuw i8, ptr %1, i64 128
  %15 = load ptr, ptr %14, align 8, !tbaa !128
  %16 = getelementptr inbounds nuw i8, ptr %15, i64 136
  %17 = load i32, ptr %16, align 8, !tbaa !56
  %18 = and i32 %17, 1
  %.not = icmp eq i32 %18, 0
  br i1 %.not, label %20, label %19

19:                                               ; preds = %13
  call fastcc void @graphviz_exit() #27
  unreachable

20:                                               ; preds = %13
  %21 = and i32 %17, 4
  %.not11 = icmp eq i32 %21, 0
  br i1 %.not11, label %24, label %22

22:                                               ; preds = %20
  %23 = getelementptr inbounds nuw i8, ptr %15, i64 160
  call void @longjmp(ptr noundef nonnull %23, i32 noundef 1) #31
  unreachable

24:                                               ; preds = %20, %10
  call void @llvm.lifetime.end.p0(i64 24, ptr nonnull %5) #24
  ret void
}